; Function Attrs: mustprogress nounwind willreturn uwtable
define void @Abc_FrameInputNdr(ptr noundef readnone captures(none) %0, ptr noundef %1) local_unnamed_addr #3 {
  %3 = load ptr, ptr @s_GlobalFrame, align 8, !tbaa !3
  %4 = getelementptr inbounds nuw i8, ptr %3, i64 624
  %5 = load ptr, ptr %4, align 8, !tbaa !53
  %.not.i = icmp eq ptr %5, null
  br i1 %.not.i, label %Ndr_Delete.exit, label %6

6:                                                ; preds = %2
  %7 = getelementptr inbounds nuw i8, ptr %5, i64 8
  %8 = load ptr, ptr %7, align 8, !tbaa !54
  tail call void @free(ptr noundef %8) #20
  %9 = getelementptr inbounds nuw i8, ptr %5, i64 16
  %10 = load ptr, ptr %9, align 8, !tbaa !56
  tail call void @free(ptr noundef %10) #20
  tail call void @free(ptr noundef nonnull %5) #20
  br label %Ndr_Delete.exit

Ndr_Delete.exit:                                  ; preds = %2, %6
  store ptr %1, ptr %4, align 8, !tbaa !53
  ret void
}